; Function Attrs: mustprogress nounwind uwtable
define hidden void @_ZN13InstanceKlass13oop_verify_onEP7oopDescP12outputStream(ptr noundef nonnull align 8 dereferenceable(464) %0, ptr noundef %1, ptr noundef %2) unnamed_addr #0 align 2 {
  %4 = alloca %class.VerifyFieldClosure, align 8
  tail call void @_ZN5Klass13oop_verify_onEP7oopDescP12outputStream(ptr noundef nonnull align 8 dereferenceable(196) %0, ptr noundef %1, ptr noundef %2) #26
  %5 = getelementptr inbounds i8, ptr %4, i64 8
  store ptr null, ptr %5, align 8
  store ptr getelementptr inbounds inrange(-16, 64) (i8, ptr @_ZTV18VerifyFieldClosure, i64 16), ptr %4, align 8
  %6 = load i8, ptr @UseCompressedClassPointers, align 1
  %7 = trunc i8 %6 to i1
  %8 = getelementptr inbounds i8, ptr %1, i64 8
  br i1 %7, label %9, label %19

9:                                                ; preds = %3
  %10 = load i32, ptr %8, align 8
  %11 = load ptr, ptr @_ZN23CompressedKlassPointers5_baseE, align 8
  %12 = load i32, ptr @_ZN23CompressedKlassPointers6_shiftE, align 4
  %13 = ptrtoint ptr %11 to i64
  %14 = zext i32 %10 to i64
  %15 = zext nneg i32 %12 to i64
  %16 = shl i64 %14, %15
  %17 = add i64 %16, %13
  %18 = inttoptr i64 %17 to ptr
  br label %_ZN7oopDesc11oop_iterateI18VerifyFieldClosureEEvPT_.exit

19:                                               ; preds = %3
  %20 = load ptr, ptr %8, align 8
  br label %_ZN7oopDesc11oop_iterateI18VerifyFieldClosureEEvPT_.exit

_ZN7oopDesc11oop_iterateI18VerifyFieldClosureEEvPT_.exit: ; preds = %9, %19
  %.0.i.i = phi ptr [ %18, %9 ], [ %20, %19 ]
  %21 = getelementptr inbounds i8, ptr %.0.i.i, i64 12
  %22 = load i32, ptr %21, align 4
  %23 = sext i32 %22 to i64
  %24 = getelementptr inbounds [7 x ptr], ptr @_ZN21OopOopIterateDispatchI18VerifyFieldClosureE6_tableE, i64 0, i64 %23
  %25 = load ptr, ptr %24, align 8
  call void %25(ptr noundef nonnull %4, ptr noundef nonnull %1, ptr noundef %.0.i.i) #26
  ret void
}